target datalayout = "e-m:e-p270:32:32-p271:32:32-p272:64:64-i64:64-i128:128-f80:128-n8:16:32:64-S128"
target triple = "x86_64-pc-linux-gnu"

%struct.DdManager = type { %struct.DdNode, ptr, ptr, ptr, ptr, ptr, ptr, ptr, i32, i32, double, double, double, i32, i32, i32, i32, i32, i32, ptr, ptr, %struct.DdSubtable, i32, i32, i32, i32, i32, i32, i32, double, i32, i32, i32, ptr, i64, double, i32, ptr, ptr, ptr, ptr, ptr, ptr, ptr, i32, ptr, ptr, ptr, ptr, ptr, ptr, i32, i32, i32, double, i32, i32, i32, i32, double, double, i32, i32, i32, i32, i32, i32, i32, i32, i32, ptr, ptr, i32, i32, i32, i32, i32, i32, ptr, ptr, ptr, ptr, ptr, ptr, ptr, ptr, i32, i64, i64, i64, i32, i64, i64, double, double, double, double, double, double, i32, ptr, ptr, i64 }
%struct.DdNode = type { i32, i32, ptr, %union.anon.1, i64 }
%union.anon.1 = type { %struct.DdChildren }
%struct.DdChildren = type { ptr, ptr }
%struct.DdSubtable = type { ptr, i32, i32, i32, i32, i32, i32, i32, i32, i32, i32, i32 }
%struct.Vec_Str_t_ = type { i32, i32, ptr }

@.str.5 = private unnamed_addr constant [7 x i8] c"%s %d\0A\00", align 1

; Function Attrs: nounwind uwtable
define void @Abc_ConvertZddToSop_rec(ptr noundef %0, ptr noundef %1, ptr noundef %2, i32 noundef %3, ptr noundef %4, i32 noundef %5, ptr noundef %6) #0 {
  %8 = alloca ptr, align 8
  %9 = alloca ptr, align 8
  %10 = alloca ptr, align 8
  %11 = alloca i32, align 4
  %12 = alloca ptr, align 8
  %13 = alloca i32, align 4
  %14 = alloca ptr, align 8
  %15 = alloca ptr, align 8
  %16 = alloca ptr, align 8
  %17 = alloca ptr, align 8
  %18 = alloca i32, align 4
  %19 = alloca i32, align 4
  %20 = alloca ptr, align 8
  store ptr %0, ptr %8, align 8, !tbaa !15
  store ptr %1, ptr %9, align 8, !tbaa !19
  store ptr %2, ptr %10, align 8, !tbaa !3
  store i32 %3, ptr %11, align 4, !tbaa !8
  store ptr %4, ptr %12, align 8, !tbaa !78
  store i32 %5, ptr %13, align 4, !tbaa !8
  store ptr %6, ptr %14, align 8, !tbaa !10
  call void @llvm.lifetime.start.p0(i64 8, ptr %15) #10
  call void @llvm.lifetime.start.p0(i64 8, ptr %16) #10
  call void @llvm.lifetime.start.p0(i64 8, ptr %17) #10
  call void @llvm.lifetime.start.p0(i64 4, ptr %18) #10
  %21 = load ptr, ptr %9, align 8, !tbaa !19
  %22 = load ptr, ptr %8, align 8, !tbaa !15
  %23 = getelementptr inbounds nuw %struct.DdManager, ptr %22, i32 0, i32 2
  %24 = load ptr, ptr %23, align 8, !tbaa !95
  %25 = icmp eq ptr %21, %24
  br i1 %25, label %26, label %27

26:                                               ; preds = %7
  store i32 1, ptr %19, align 4
  br label %97

27:                                               ; preds = %7
  %28 = load ptr, ptr %9, align 8, !tbaa !19
  %29 = load ptr, ptr %8, align 8, !tbaa !15
  %30 = getelementptr inbounds nuw %struct.DdManager, ptr %29, i32 0, i32 1
  %31 = load ptr, ptr %30, align 8, !tbaa !96
  %32 = icmp eq ptr %28, %31
  br i1 %32, label %33, label %51

33:                                               ; preds = %27
  call void @llvm.lifetime.start.p0(i64 8, ptr %20) #10
  %34 = load ptr, ptr %10, align 8, !tbaa !3
  %35 = load ptr, ptr %14, align 8, !tbaa !10
  %36 = load i32, ptr %35, align 4, !tbaa !8
  %37 = load i32, ptr %11, align 4, !tbaa !8
  %38 = add nsw i32 %37, 3
  %39 = mul nsw i32 %36, %38
  %40 = sext i32 %39 to i64
  %41 = getelementptr inbounds i8, ptr %34, i64 %40
  store ptr %41, ptr %20, align 8, !tbaa !3
  %42 = load ptr, ptr %20, align 8, !tbaa !3
  %43 = load ptr, ptr %12, align 8, !tbaa !78
  %44 = getelementptr inbounds nuw %struct.Vec_Str_t_, ptr %43, i32 0, i32 2
  %45 = load ptr, ptr %44, align 8, !tbaa !83
  %46 = load i32, ptr %13, align 4, !tbaa !8
  %47 = call i32 (ptr, ptr, ...) @sprintf(ptr noundef %42, ptr noundef @.str.5, ptr noundef %45, i32 noundef %46) #10
  %48 = load ptr, ptr %14, align 8, !tbaa !10
  %49 = load i32, ptr %48, align 4, !tbaa !8
  %50 = add nsw i32 %49, 1
  store i32 %50, ptr %48, align 4, !tbaa !8
  store i32 1, ptr %19, align 4
  call void @llvm.lifetime.end.p0(i64 8, ptr %20) #10
  br label %97

51:                                               ; preds = %27
  %52 = load ptr, ptr %9, align 8, !tbaa !19
  %53 = getelementptr inbounds nuw %struct.DdNode, ptr %52, i32 0, i32 0
  %54 = load i32, ptr %53, align 8, !tbaa !80
  %55 = udiv i32 %54, 2
  store i32 %55, ptr %18, align 4, !tbaa !8
  %56 = load ptr, ptr %8, align 8, !tbaa !15
  %57 = load ptr, ptr %9, align 8, !tbaa !19
  call void @extraDecomposeCover(ptr noundef %56, ptr noundef %57, ptr noundef %15, ptr noundef %16, ptr noundef %17)
  %58 = load ptr, ptr %12, align 8, !tbaa !78
  %59 = getelementptr inbounds nuw %struct.Vec_Str_t_, ptr %58, i32 0, i32 2
  %60 = load ptr, ptr %59, align 8, !tbaa !83
  %61 = load i32, ptr %18, align 4, !tbaa !8
  %62 = sext i32 %61 to i64
  %63 = getelementptr inbounds i8, ptr %60, i64 %62
  store i8 48, ptr %63, align 1, !tbaa !12
  %64 = load ptr, ptr %8, align 8, !tbaa !15
  %65 = load ptr, ptr %15, align 8, !tbaa !19
  %66 = load ptr, ptr %10, align 8, !tbaa !3
  %67 = load i32, ptr %11, align 4, !tbaa !8
  %68 = load ptr, ptr %12, align 8, !tbaa !78
  %69 = load i32, ptr %13, align 4, !tbaa !8
  %70 = load ptr, ptr %14, align 8, !tbaa !10
  call void @Abc_ConvertZddToSop_rec(ptr noundef %64, ptr noundef %65, ptr noundef %66, i32 noundef %67, ptr noundef %68, i32 noundef %69, ptr noundef %70)
  %71 = load ptr, ptr %12, align 8, !tbaa !78
  %72 = getelementptr inbounds nuw %struct.Vec_Str_t_, ptr %71, i32 0, i32 2
  %73 = load ptr, ptr %72, align 8, !tbaa !83
  %74 = load i32, ptr %18, align 4, !tbaa !8
  %75 = sext i32 %74 to i64
  %76 = getelementptr inbounds i8, ptr %73, i64 %75
  store i8 49, ptr %76, align 1, !tbaa !12
  %77 = load ptr, ptr %8, align 8, !tbaa !15
  %78 = load ptr, ptr %16, align 8, !tbaa !19
  %79 = load ptr, ptr %10, align 8, !tbaa !3
  %80 = load i32, ptr %11, align 4, !tbaa !8
  %81 = load ptr, ptr %12, align 8, !tbaa !78
  %82 = load i32, ptr %13, align 4, !tbaa !8
  %83 = load ptr, ptr %14, align 8, !tbaa !10
  call void @Abc_ConvertZddToSop_rec(ptr noundef %77, ptr noundef %78, ptr noundef %79, i32 noundef %80, ptr noundef %81, i32 noundef %82, ptr noundef %83)
  %84 = load ptr, ptr %12, align 8, !tbaa !78
  %85 = getelementptr inbounds nuw %struct.Vec_Str_t_, ptr %84, i32 0, i32 2
  %86 = load ptr, ptr %85, align 8, !tbaa !83
  %87 = load i32, ptr %18, align 4, !tbaa !8
  %88 = sext i32 %87 to i64
  %89 = getelementptr inbounds i8, ptr %86, i64 %88
  store i8 45, ptr %89, align 1, !tbaa !12
  %90 = load ptr, ptr %8, align 8, !tbaa !15
  %91 = load ptr, ptr %17, align 8, !tbaa !19
  %92 = load ptr, ptr %10, align 8, !tbaa !3
  %93 = load i32, ptr %11, align 4, !tbaa !8
  %94 = load ptr, ptr %12, align 8, !tbaa !78
  %95 = load i32, ptr %13, align 4, !tbaa !8
  %96 = load ptr, ptr %14, align 8, !tbaa !10
  call void @Abc_ConvertZddToSop_rec(ptr noundef %90, ptr noundef %91, ptr noundef %92, i32 noundef %93, ptr noundef %94, i32 noundef %95, ptr noundef %96)
  store i32 0, ptr %19, align 4
  br label %97

97:                                               ; preds = %51, %33, %26
  call void @llvm.lifetime.end.p0(i64 4, ptr %18) #10
  call void @llvm.lifetime.end.p0(i64 8, ptr %17) #10
  call void @llvm.lifetime.end.p0(i64 8, ptr %16) #10
  call void @llvm.lifetime.end.p0(i64 8, ptr %15) #10
  %98 = load i32, ptr %19, align 4
  switch i32 %98, label %100 [
    i32 0, label %99
    i32 1, label %99
  ]

99:                                               ; preds = %97, %97
  ret void

100:                                              ; preds = %97
  unreachable
}