; Function Attrs: nounwind uwtable
define void @Abc_ConvertZddToSop_rec(ptr noundef %0, ptr noundef %1, ptr noundef %2, i32 noundef %3, ptr noundef %4, i32 noundef %5, ptr noundef %6) local_unnamed_addr #2 {
  %8 = alloca ptr, align 8
  %9 = alloca ptr, align 8
  %10 = alloca ptr, align 8
  call void @llvm.lifetime.start.p0(i64 8, ptr nonnull %8) #17
  call void @llvm.lifetime.start.p0(i64 8, ptr nonnull %9) #17
  call void @llvm.lifetime.start.p0(i64 8, ptr nonnull %10) #17
  %11 = getelementptr inbounds nuw i8, ptr %0, i64 48
  %12 = load ptr, ptr %11, align 8, !tbaa !80
  %13 = icmp eq ptr %1, %12
  br i1 %13, label %43, label %14

14:                                               ; preds = %7
  %15 = getelementptr inbounds nuw i8, ptr %0, i64 40
  %16 = load ptr, ptr %15, align 8, !tbaa !81
  %17 = icmp eq ptr %1, %16
  br i1 %17, label %18, label %29

18:                                               ; preds = %14
  %19 = load i32, ptr %6, align 4, !tbaa !6
  %20 = add nsw i32 %3, 3
  %21 = mul nsw i32 %19, %20
  %22 = sext i32 %21 to i64
  %23 = getelementptr inbounds i8, ptr %2, i64 %22
  %24 = getelementptr inbounds nuw i8, ptr %4, i64 8
  %25 = load ptr, ptr %24, align 8, !tbaa !69
  %26 = tail call i32 (ptr, ptr, ...) @sprintf(ptr noundef nonnull dereferenceable(1) %23, ptr noundef nonnull dereferenceable(1) @.str.5, ptr noundef %25, i32 noundef %5) #17
  %27 = load i32, ptr %6, align 4, !tbaa !6
  %28 = add nsw i32 %27, 1
  store i32 %28, ptr %6, align 4, !tbaa !6
  br label %43

29:                                               ; preds = %14
  %30 = load i32, ptr %1, align 8, !tbaa !66
  %31 = lshr i32 %30, 1
  call void @extraDecomposeCover(ptr noundef nonnull %0, ptr noundef nonnull %1, ptr noundef nonnull %8, ptr noundef nonnull %9, ptr noundef nonnull %10) #17
  %32 = getelementptr inbounds nuw i8, ptr %4, i64 8
  %33 = load ptr, ptr %32, align 8, !tbaa !69
  %34 = zext nneg i32 %31 to i64
  %35 = getelementptr inbounds nuw i8, ptr %33, i64 %34
  store i8 48, ptr %35, align 1, !tbaa !3
  %36 = load ptr, ptr %8, align 8, !tbaa !10
  call void @Abc_ConvertZddToSop_rec(ptr noundef nonnull %0, ptr noundef %36, ptr noundef %2, i32 noundef %3, ptr noundef %4, i32 noundef %5, ptr noundef %6)
  %37 = load ptr, ptr %32, align 8, !tbaa !69
  %38 = getelementptr inbounds nuw i8, ptr %37, i64 %34
  store i8 49, ptr %38, align 1, !tbaa !3
  %39 = load ptr, ptr %9, align 8, !tbaa !10
  call void @Abc_ConvertZddToSop_rec(ptr noundef nonnull %0, ptr noundef %39, ptr noundef %2, i32 noundef %3, ptr noundef %4, i32 noundef %5, ptr noundef %6)
  %40 = load ptr, ptr %32, align 8, !tbaa !69
  %41 = getelementptr inbounds nuw i8, ptr %40, i64 %34
  store i8 45, ptr %41, align 1, !tbaa !3
  %42 = load ptr, ptr %10, align 8, !tbaa !10
  call void @Abc_ConvertZddToSop_rec(ptr noundef nonnull %0, ptr noundef %42, ptr noundef %2, i32 noundef %3, ptr noundef %4, i32 noundef %5, ptr noundef %6)
  br label %43

43:                                               ; preds = %7, %29, %18
  call void @llvm.lifetime.end.p0(i64 8, ptr nonnull %10) #17
  call void @llvm.lifetime.end.p0(i64 8, ptr nonnull %9) #17
  call void @llvm.lifetime.end.p0(i64 8, ptr nonnull %8) #17
  ret void
}